target datalayout = "e-m:e-p270:32:32-p271:32:32-p272:64:64-i64:64-i128:128-f80:128-n8:16:32:64-S128"
target triple = "x86_64-pc-linux-gnu"

%struct.List = type { i32, i32, i32, ptr, [0 x %union.ListCell] }
%union.ListCell = type { ptr }
%struct.RelationData = type { %struct.RelFileLocator, ptr, i32, i32, i8, i8, i8, i8, i8, i32, i32, i32, i32, ptr, ptr, i32, %struct.LockInfoData, ptr, ptr, ptr, ptr, ptr, i8, ptr, ptr, ptr, ptr, ptr, ptr, i32, ptr, i8, ptr, ptr, i32, i8, i32, ptr, i8, ptr, ptr, ptr, ptr, ptr, ptr, ptr, i32, ptr, ptr, ptr, ptr, ptr, ptr, ptr, ptr, ptr, ptr, ptr, ptr, ptr, ptr, ptr, ptr, ptr, ptr, ptr, i32, i8, ptr }
%struct.RelFileLocator = type { i32, i32, i32 }
%struct.LockInfoData = type { %struct.LockRelId }
%struct.LockRelId = type { i32, i32 }
%struct.RuleLock = type { i32, ptr }
%struct.RewriteRule = type { i32, i32, ptr, ptr, i8, i8 }

@.str.1 = private unnamed_addr constant [17 x i8] c"rewriteHandler.c\00", align 1
@.str.5 = private unnamed_addr constant [42 x i8] c"invalid _RETURN rule action specification\00", align 1
@__func__.get_view_query = private unnamed_addr constant [15 x i8] c"get_view_query\00", align 1
@.str.6 = private unnamed_addr constant [37 x i8] c"failed to find _RETURN rule for view\00", align 1

; Function Attrs: inlinehint nounwind uwtable
define internal ptr @list_nth_cell(ptr noundef %0, i32 noundef %1) #5 {
  %3 = alloca ptr, align 8
  %4 = alloca i32, align 4
  store ptr %0, ptr %3, align 8
  store i32 %1, ptr %4, align 4
  %5 = load ptr, ptr %3, align 8
  %6 = getelementptr inbounds nuw %struct.List, ptr %5, i32 0, i32 3
  %7 = load ptr, ptr %6, align 8
  %8 = load i32, ptr %4, align 4
  %9 = sext i32 %8 to i64
  %10 = getelementptr inbounds %union.ListCell, ptr %7, i64 %9
  ret ptr %10
}

; Function Attrs: inlinehint nounwind uwtable
define internal i32 @list_length(ptr noundef %0) #5 {
  %2 = alloca ptr, align 8
  store ptr %0, ptr %2, align 8
  %3 = load ptr, ptr %2, align 8
  %4 = icmp ne ptr %3, null
  br i1 %4, label %5, label %9

5:                                                ; preds = %1
  %6 = load ptr, ptr %2, align 8
  %7 = getelementptr inbounds nuw %struct.List, ptr %6, i32 0, i32 1
  %8 = load i32, ptr %7, align 4
  br label %10

9:                                                ; preds = %1
  br label %10

10:                                               ; preds = %9, %5
  %11 = phi i32 [ %8, %5 ], [ 0, %9 ]
  ret i32 %11
}

; Function Attrs: nounwind uwtable
define dso_local ptr @get_view_query(ptr noundef %0) #0 {
  %2 = alloca ptr, align 8
  %3 = alloca ptr, align 8
  %4 = alloca i32, align 4
  %5 = alloca ptr, align 8
  %6 = alloca i32, align 4
  store ptr %0, ptr %3, align 8
  call void @llvm.lifetime.start.p0(i64 4, ptr %4) #9
  store i32 0, ptr %4, align 4
  br label %7

7:                                                ; preds = %56, %1
  %8 = load i32, ptr %4, align 4
  %9 = load ptr, ptr %3, align 8
  %10 = getelementptr inbounds nuw %struct.RelationData, ptr %9, i32 0, i32 17
  %11 = load ptr, ptr %10, align 8
  %12 = getelementptr inbounds nuw %struct.RuleLock, ptr %11, i32 0, i32 0
  %13 = load i32, ptr %12, align 8
  %14 = icmp slt i32 %8, %13
  br i1 %14, label %15, label %59

15:                                               ; preds = %7
  call void @llvm.lifetime.start.p0(i64 8, ptr %5) #9
  %16 = load ptr, ptr %3, align 8
  %17 = getelementptr inbounds nuw %struct.RelationData, ptr %16, i32 0, i32 17
  %18 = load ptr, ptr %17, align 8
  %19 = getelementptr inbounds nuw %struct.RuleLock, ptr %18, i32 0, i32 1
  %20 = load ptr, ptr %19, align 8
  %21 = load i32, ptr %4, align 4
  %22 = sext i32 %21 to i64
  %23 = getelementptr inbounds ptr, ptr %20, i64 %22
  %24 = load ptr, ptr %23, align 8
  store ptr %24, ptr %5, align 8
  %25 = load ptr, ptr %5, align 8
  %26 = getelementptr inbounds nuw %struct.RewriteRule, ptr %25, i32 0, i32 1
  %27 = load i32, ptr %26, align 4
  %28 = icmp eq i32 %27, 1
  br i1 %28, label %29, label %52

29:                                               ; preds = %15
  %30 = load ptr, ptr %5, align 8
  %31 = getelementptr inbounds nuw %struct.RewriteRule, ptr %30, i32 0, i32 3
  %32 = load ptr, ptr %31, align 8
  %33 = call i32 @list_length(ptr noundef %32)
  %34 = icmp ne i32 %33, 1
  br i1 %34, label %35, label %46

35:                                               ; preds = %29
  br label %36

36:                                               ; preds = %35
  br i1 true, label %37, label %39

37:                                               ; preds = %36
  %38 = call zeroext i1 @errstart_cold(i32 noundef 21, ptr noundef null) #10
  br i1 %38, label %41, label %43

39:                                               ; preds = %36
  %40 = call zeroext i1 @errstart(i32 noundef 21, ptr noundef null)
  br i1 %40, label %41, label %43

41:                                               ; preds = %39, %37
  %42 = call i32 (ptr, ...) @errmsg_internal(ptr noundef @.str.5)
  call void @errfinish(ptr noundef @.str.1, i32 noundef 2510, ptr noundef @__func__.get_view_query)
  br label %43

43:                                               ; preds = %41, %39, %37
  unreachable

44:                                               ; No predecessors!
  br label %45

45:                                               ; preds = %44
  br label %46

46:                                               ; preds = %45, %29
  %47 = load ptr, ptr %5, align 8
  %48 = getelementptr inbounds nuw %struct.RewriteRule, ptr %47, i32 0, i32 3
  %49 = load ptr, ptr %48, align 8
  %50 = call ptr @list_nth_cell(ptr noundef %49, i32 noundef 0)
  %51 = load ptr, ptr %50, align 8
  store ptr %51, ptr %2, align 8
  store i32 1, ptr %6, align 4
  br label %53

52:                                               ; preds = %15
  store i32 0, ptr %6, align 4
  br label %53

53:                                               ; preds = %52, %46
  call void @llvm.lifetime.end.p0(i64 8, ptr %5) #9
  %54 = load i32, ptr %6, align 4
  switch i32 %54, label %70 [
    i32 0, label %55
  ]

55:                                               ; preds = %53
  br label %56

56:                                               ; preds = %55
  %57 = load i32, ptr %4, align 4
  %58 = add i32 %57, 1
  store i32 %58, ptr %4, align 4
  br label %7, !llvm.loop !10

59:                                               ; preds = %7
  br label %60

60:                                               ; preds = %59
  br i1 true, label %61, label %63

61:                                               ; preds = %60
  %62 = call zeroext i1 @errstart_cold(i32 noundef 21, ptr noundef null) #10
  br i1 %62, label %65, label %67

63:                                               ; preds = %60
  %64 = call zeroext i1 @errstart(i32 noundef 21, ptr noundef null)
  br i1 %64, label %65, label %67

65:                                               ; preds = %63, %61
  %66 = call i32 (ptr, ...) @errmsg_internal(ptr noundef @.str.6)
  call void @errfinish(ptr noundef @.str.1, i32 noundef 2516, ptr noundef @__func__.get_view_query)
  br label %67

67:                                               ; preds = %65, %63, %61
  unreachable

68:                                               ; No predecessors!
  br label %69

69:                                               ; preds = %68
  store ptr null, ptr %2, align 8
  store i32 1, ptr %6, align 4
  br label %70

70:                                               ; preds = %69, %53
  call void @llvm.lifetime.end.p0(i64 4, ptr %4) #9
  %71 = load ptr, ptr %2, align 8
  ret ptr %71
}