; Function Attrs: nounwind uwtable
define dso_local ptr @get_view_query(ptr noundef readonly captures(none) %0) local_unnamed_addr #0 {
  %2 = getelementptr inbounds nuw i8, ptr %0, i64 88
  %3 = load ptr, ptr %2, align 8
  %4 = load i32, ptr %3, align 8
  %5 = icmp sgt i32 %4, 0
  br i1 %5, label %.lr.ph, label %._crit_edge

.lr.ph:                                           ; preds = %1
  %6 = getelementptr inbounds nuw i8, ptr %3, i64 8
  %7 = load ptr, ptr %6, align 8
  %wide.trip.count = zext nneg i32 %4 to i64
  br label %9

8:                                                ; preds = %9
  %indvars.iv.next = add nuw nsw i64 %indvars.iv, 1
  %exitcond.not = icmp eq i64 %indvars.iv.next, %wide.trip.count
  br i1 %exitcond.not, label %._crit_edge, label %9, !llvm.loop !6

9:                                                ; preds = %.lr.ph, %8
  %indvars.iv = phi i64 [ 0, %.lr.ph ], [ %indvars.iv.next, %8 ]
  %10 = getelementptr inbounds nuw ptr, ptr %7, i64 %indvars.iv
  %11 = load ptr, ptr %10, align 8
  %12 = getelementptr inbounds nuw i8, ptr %11, i64 4
  %13 = load i32, ptr %12, align 4
  %.not11 = icmp eq i32 %13, 1
  br i1 %.not11, label %14, label %8

14:                                               ; preds = %9
  %15 = getelementptr inbounds nuw i8, ptr %11, i64 16
  %16 = load ptr, ptr %15, align 8
  %.not.i = icmp eq ptr %16, null
  br i1 %.not.i, label %list_length.exit.thread, label %list_length.exit

list_length.exit:                                 ; preds = %14
  %17 = getelementptr inbounds nuw i8, ptr %16, i64 4
  %18 = load i32, ptr %17, align 4
  %.not = icmp eq i32 %18, 1
  br i1 %.not, label %23, label %list_length.exit.thread

list_length.exit.thread:                          ; preds = %14, %list_length.exit
  %19 = tail call zeroext i1 @errstart_cold(i32 noundef 21, ptr noundef null) #11
  tail call void @llvm.assume(i1 %19)
  %20 = tail call i32 (ptr, ...) @errmsg_internal(ptr noundef nonnull @.str.5) #10
  tail call void @errfinish(ptr noundef nonnull @.str.1, i32 noundef 2510, ptr noundef nonnull @__func__.get_view_query) #10
  unreachable

._crit_edge:                                      ; preds = %8, %1
  %21 = tail call zeroext i1 @errstart_cold(i32 noundef 21, ptr noundef null) #11
  tail call void @llvm.assume(i1 %21)
  %22 = tail call i32 (ptr, ...) @errmsg_internal(ptr noundef nonnull @.str.6) #10
  tail call void @errfinish(ptr noundef nonnull @.str.1, i32 noundef 2516, ptr noundef nonnull @__func__.get_view_query) #10
  unreachable

23:                                               ; preds = %list_length.exit
  %24 = getelementptr i8, ptr %16, i64 16
  %.val = load ptr, ptr %24, align 8
  %25 = load ptr, ptr %.val, align 8
  ret ptr %25
}